; ModuleID = '44/38.c'
source_filename = "44/38.c"
target datalayout = "e-m:e-p270:32:32-p271:32:32-p272:64:64-i64:64-f80:128-n8:16:32:64-S128"
target triple = "x86_64-pc-linux-gnu"

@.str = private unnamed_addr constant [3 x i8] c"%d\00", align 1
@.str.1 = private unnamed_addr constant [4 x i8] c"%d\0A\00", align 1

; Function Attrs: noinline nounwind uwtable
define dso_local void @main() #0 {
  %1 = alloca [6 x i32], align 16
  %2 = alloca [6 x i32], align 16
  %3 = alloca i32, align 4
  store i32 0, i32* %3, align 4
  br label %4

4:                                                ; preds = %20, %0
  %5 = load i32, i32* %3, align 4
  %6 = icmp slt i32 %5, 6
  br i1 %6, label %7, label %23

7:                                                ; preds = %4
  %8 = load i32, i32* %3, align 4
  %9 = sext i32 %8 to i64
  %10 = getelementptr inbounds [6 x i32], [6 x i32]* %1, i64 0, i64 %9
  %11 = call i32 (i8*, ...) @__isoc99_scanf(i8* getelementptr inbounds ([3 x i8], [3 x i8]* @.str, i64 0, i64 0), i32* %10)
  %12 = load i32, i32* %3, align 4
  %13 = sext i32 %12 to i64
  %14 = getelementptr inbounds [6 x i32], [6 x i32]* %1, i64 0, i64 %13
  %15 = load i32, i32* %14, align 4
  %16 = call i32 @reverse(i32 %15)
  %17 = load i32, i32* %3, align 4
  %18 = sext i32 %17 to i64
  %19 = getelementptr inbounds [6 x i32], [6 x i32]* %2, i64 0, i64 %18
  store i32 %16, i32* %19, align 4
  br label %20

20:                                               ; preds = %7
  %21 = load i32, i32* %3, align 4
  %22 = add nsw i32 %21, 1
  store i32 %22, i32* %3, align 4
  br label %4

23:                                               ; preds = %4
  store i32 0, i32* %3, align 4
  br label %24

24:                                               ; preds = %33, %23
  %25 = load i32, i32* %3, align 4
  %26 = icmp slt i32 %25, 6
  br i1 %26, label %27, label %36

27:                                               ; preds = %24
  %28 = load i32, i32* %3, align 4
  %29 = sext i32 %28 to i64
  %30 = getelementptr inbounds [6 x i32], [6 x i32]* %2, i64 0, i64 %29
  %31 = load i32, i32* %30, align 4
  %32 = call i32 (i8*, ...) @printf(i8* getelementptr inbounds ([4 x i8], [4 x i8]* @.str.1, i64 0, i64 0), i32 %31)
  br label %33

33:                                               ; preds = %27
  %34 = load i32, i32* %3, align 4
  %35 = add nsw i32 %34, 1
  store i32 %35, i32* %3, align 4
  br label %24

36:                                               ; preds = %24
  ret void
}

declare dso_local i32 @__isoc99_scanf(i8*, ...) #1

; Function Attrs: noinline nounwind uwtable
define dso_local i32 @reverse(i32 %0) #0 {
  %2 = alloca i32, align 4
  %3 = alloca i32, align 4
  %4 = alloca i32, align 4
  %5 = alloca i32, align 4
  %6 = alloca i32, align 4
  %7 = alloca i32, align 4
  %8 = alloca i32, align 4
  %9 = alloca i32, align 4
  %10 = alloca [1000 x i32], align 16
  %11 = alloca i32, align 4
  store i32 %0, i32* %3, align 4
  store i32 0, i32* %4, align 4
  store i32 0, i32* %9, align 4
  %12 = load i32, i32* %3, align 4
  %13 = call i32 @abs(i32 %12) #4
  store i32 %13, i32* %11, align 4
  %14 = load i32, i32* %11, align 4
  %15 = sitofp i32 %14 to double
  %16 = call double @log10(double %15) #5
  %17 = fptosi double %16 to i32
  store i32 %17, i32* %4, align 4
  %18 = load i32, i32* %4, align 4
  store i32 %18, i32* %5, align 4
  store i32 0, i32* %6, align 4
  br label %19

19:                                               ; preds = %46, %1
  %20 = load i32, i32* %5, align 4
  %21 = icmp sge i32 %20, 0
  br i1 %21, label %22, label %51

22:                                               ; preds = %19
  %23 = load i32, i32* %11, align 4
  %24 = sitofp i32 %23 to double
  %25 = load i32, i32* %5, align 4
  %26 = sitofp i32 %25 to double
  %27 = call double @pow(double 1.000000e+01, double %26) #5
  %28 = fdiv double %24, %27
  %29 = fptosi double %28 to i32
  %30 = load i32, i32* %6, align 4
  %31 = sext i32 %30 to i64
  %32 = getelementptr inbounds [1000 x i32], [1000 x i32]* %10, i64 0, i64 %31
  store i32 %29, i32* %32, align 4
  %33 = load i32, i32* %11, align 4
  %34 = sitofp i32 %33 to double
  %35 = load i32, i32* %6, align 4
  %36 = sext i32 %35 to i64
  %37 = getelementptr inbounds [1000 x i32], [1000 x i32]* %10, i64 0, i64 %36
  %38 = load i32, i32* %37, align 4
  %39 = sitofp i32 %38 to double
  %40 = load i32, i32* %5, align 4
  %41 = sitofp i32 %40 to double
  %42 = call double @pow(double 1.000000e+01, double %41) #5
  %43 = fmul double %39, %42
  %44 = fsub double %34, %43
  %45 = fptosi double %44 to i32
  store i32 %45, i32* %11, align 4
  br label %46

46:                                               ; preds = %22
  %47 = load i32, i32* %5, align 4
  %48 = add nsw i32 %47, -1
  store i32 %48, i32* %5, align 4
  %49 = load i32, i32* %6, align 4
  %50 = add nsw i32 %49, 1
  store i32 %50, i32* %6, align 4
  br label %19

51:                                               ; preds = %19
  store i32 0, i32* %7, align 4
  store i32 0, i32* %9, align 4
  br label %52

52:                                               ; preds = %70, %51
  %53 = load i32, i32* %7, align 4
  %54 = load i32, i32* %6, align 4
  %55 = icmp slt i32 %53, %54
  br i1 %55, label %56, label %73

56:                                               ; preds = %52
  %57 = load i32, i32* %9, align 4
  %58 = sitofp i32 %57 to double
  %59 = load i32, i32* %7, align 4
  %60 = sext i32 %59 to i64
  %61 = getelementptr inbounds [1000 x i32], [1000 x i32]* %10, i64 0, i64 %60
  %62 = load i32, i32* %61, align 4
  %63 = sitofp i32 %62 to double
  %64 = load i32, i32* %7, align 4
  %65 = sitofp i32 %64 to double
  %66 = call double @pow(double 1.000000e+01, double %65) #5
  %67 = fmul double %63, %66
  %68 = fadd double %58, %67
  %69 = fptosi double %68 to i32
  store i32 %69, i32* %9, align 4
  br label %70

70:                                               ; preds = %56
  %71 = load i32, i32* %7, align 4
  %72 = add nsw i32 %71, 1
  store i32 %72, i32* %7, align 4
  br label %52

73:                                               ; preds = %52
  %74 = load i32, i32* %3, align 4
  %75 = icmp sge i32 %74, 0
  br i1 %75, label %76, label %78

76:                                               ; preds = %73
  %77 = load i32, i32* %9, align 4
  store i32 %77, i32* %2, align 4
  br label %81

78:                                               ; preds = %73
  %79 = load i32, i32* %9, align 4
  %80 = sub nsw i32 0, %79
  store i32 %80, i32* %2, align 4
  br label %81

81:                                               ; preds = %78, %76
  %82 = load i32, i32* %2, align 4
  ret i32 %82
}

declare dso_local i32 @printf(i8*, ...) #1

; Function Attrs: nounwind readnone
declare dso_local i32 @abs(i32) #2

; Function Attrs: nounwind
declare dso_local double @log10(double) #3

; Function Attrs: nounwind
declare dso_local double @pow(double, double) #3


!llvm.module.flags = !{!0}
!llvm.ident = !{!1}

!0 = !{i32 1, !"wchar_size", i32 4}
!1 = !{!"clang version 10.0.0-4ubuntu1 "}
